; Function Attrs: mustprogress uwtable
define hidden void @_ZN2cv11xfeatures2d28LATCHDescriptorExtractorImplC2Eibid(ptr noundef nonnull align 8 dereferenceable(64) %0, ptr noundef %1, i32 noundef %2, i1 noundef zeroext %3, i32 noundef %4, double noundef %5) unnamed_addr #3 align 2 personality ptr @__gxx_personality_v0 {
  %7 = zext i1 %3 to i8
  %8 = getelementptr inbounds i8, ptr %1, i64 8
  %9 = getelementptr inbounds i8, ptr %1, i64 16
  %10 = load ptr, ptr %9, align 8
  store ptr %10, ptr %0, align 8
  %11 = getelementptr inbounds i8, ptr %1, i64 24
  %12 = load ptr, ptr %11, align 8
  %13 = getelementptr i8, ptr %10, i64 -80
  %14 = load i64, ptr %13, align 8
  %15 = getelementptr inbounds i8, ptr %0, i64 %14
  store ptr %12, ptr %15, align 8
  %16 = load ptr, ptr %8, align 8
  store ptr %16, ptr %0, align 8
  %17 = getelementptr inbounds i8, ptr %1, i64 32
  %18 = load ptr, ptr %17, align 8
  %19 = getelementptr i8, ptr %16, i64 -80
  %20 = load i64, ptr %19, align 8
  %21 = getelementptr inbounds i8, ptr %0, i64 %20
  store ptr %18, ptr %21, align 8
  %22 = load ptr, ptr %1, align 8
  store ptr %22, ptr %0, align 8
  %23 = getelementptr inbounds i8, ptr %1, i64 40
  %24 = load ptr, ptr %23, align 8
  %25 = getelementptr i8, ptr %22, i64 -80
  %26 = load i64, ptr %25, align 8
  %27 = getelementptr inbounds i8, ptr %0, i64 %26
  store ptr %24, ptr %27, align 8
  %28 = getelementptr inbounds i8, ptr %0, i64 8
  store i32 %2, ptr %28, align 8
  %29 = getelementptr inbounds i8, ptr %0, i64 16
  store ptr null, ptr %29, align 8
  %30 = getelementptr inbounds i8, ptr %0, i64 24
  store i8 %7, ptr %30, align 8
  %31 = getelementptr inbounds i8, ptr %0, i64 28
  store i32 %4, ptr %31, align 4
  %32 = getelementptr inbounds i8, ptr %0, i64 32
  store double %5, ptr %32, align 8
  %33 = getelementptr inbounds i8, ptr %0, i64 40
  tail call void @llvm.memset.p0.i64(ptr noundef nonnull align 8 dereferenceable(24) %33, i8 0, i64 24, i1 false)
  invoke void @_ZN2cv11xfeatures2d28LATCHDescriptorExtractorImpl8setBytesEi(ptr noundef nonnull align 8 dereferenceable(64) %0, i32 noundef %2)
          to label %34 unwind label %35

34:                                               ; preds = %6
  ret void

35:                                               ; preds = %6
  %36 = landingpad { ptr, i32 }
          cleanup
  %37 = load ptr, ptr %33, align 8
  %.not.i.i.i = icmp eq ptr %37, null
  br i1 %.not.i.i.i, label %_ZNSt6vectorIiSaIiEED2Ev.exit, label %38

38:                                               ; preds = %35
  tail call void @_ZdlPv(ptr noundef nonnull %37) #23
  br label %_ZNSt6vectorIiSaIiEED2Ev.exit

_ZNSt6vectorIiSaIiEED2Ev.exit:                    ; preds = %35, %38
  tail call void @_ZN2cv9Feature2DD2Ev(ptr noundef nonnull align 8 dereferenceable(8) %0, ptr noundef nonnull %9) #20
  resume { ptr, i32 } %36
}